; Function Attrs: nounwind uwtable
define ptr @l_Lean_Elab_Structural_IndGroupInst_toMessageData(ptr noundef %0) #0 {
  %2 = getelementptr inbounds nuw i8, ptr %0, i64 8
  %3 = load ptr, ptr %2, align 8, !tbaa !11
  %4 = ptrtoint ptr %3 to i64
  %5 = and i64 %4, 1
  %.not = icmp eq i64 %5, 0
  br i1 %.not, label %6, label %lean_inc.exit26

6:                                                ; preds = %1
  %.val.i = load i32, ptr %3, align 4, !tbaa !5
  %7 = icmp sgt i32 %.val.i, 0
  br i1 %7, label %8, label %10, !prof !10

8:                                                ; preds = %6
  %9 = add nuw i32 %.val.i, 1
  store i32 %9, ptr %3, align 4, !tbaa !5
  br label %lean_inc.exit26

10:                                               ; preds = %6
  %.not.i33 = icmp eq i32 %.val.i, 0
  br i1 %.not.i33, label %lean_inc.exit26, label %11

11:                                               ; preds = %10
  tail call void @lean_inc_ref_cold(ptr noundef nonnull %3) #4
  br label %lean_inc.exit26

lean_inc.exit26:                                  ; preds = %11, %10, %8, %1
  %12 = getelementptr inbounds nuw i8, ptr %3, i64 8
  %13 = load ptr, ptr %12, align 8, !tbaa !11
  %14 = ptrtoint ptr %13 to i64
  %15 = and i64 %14, 1
  %.not44 = icmp eq i64 %15, 0
  br i1 %.not44, label %16, label %lean_inc.exit25

16:                                               ; preds = %lean_inc.exit26
  %.val.i34 = load i32, ptr %13, align 4, !tbaa !5
  %17 = icmp sgt i32 %.val.i34, 0
  br i1 %17, label %18, label %20, !prof !10

18:                                               ; preds = %16
  %19 = add nuw i32 %.val.i34, 1
  store i32 %19, ptr %13, align 4, !tbaa !5
  br label %lean_inc.exit25

20:                                               ; preds = %16
  %.not.i35 = icmp eq i32 %.val.i34, 0
  br i1 %.not.i35, label %lean_inc.exit25, label %21

21:                                               ; preds = %20
  tail call void @lean_inc_ref_cold(ptr noundef nonnull %13) #4
  br label %lean_inc.exit25

lean_inc.exit25:                                  ; preds = %21, %20, %18, %lean_inc.exit26
  br i1 %.not, label %22, label %lean_dec.exit23

22:                                               ; preds = %lean_inc.exit25
  %23 = load i32, ptr %3, align 4, !tbaa !5
  %24 = icmp sgt i32 %23, 1
  br i1 %24, label %25, label %27, !prof !10

25:                                               ; preds = %22
  %26 = add nsw i32 %23, -1
  store i32 %26, ptr %3, align 4, !tbaa !5
  br label %lean_dec.exit23

27:                                               ; preds = %22
  %.not.i = icmp eq i32 %23, 0
  br i1 %.not.i, label %lean_dec.exit23, label %28

28:                                               ; preds = %27
  tail call void @lean_dec_ref_cold(ptr noundef nonnull %3) #4
  br label %lean_dec.exit23

lean_dec.exit23:                                  ; preds = %28, %27, %25, %lean_inc.exit25
  %29 = load ptr, ptr @l_Lean_instInhabitedName, align 8, !tbaa !11
  %30 = getelementptr i8, ptr %13, i64 8
  %.val.i37 = load i64, ptr %30, align 8, !tbaa !13
  %.not45 = icmp eq i64 %.val.i37, 0
  br i1 %.not45, label %lean_array_uget.exit.i, label %31

31:                                               ; preds = %lean_dec.exit23
  %32 = ptrtoint ptr %29 to i64
  %33 = and i64 %32, 1
  %.not14.i = icmp eq i64 %33, 0
  br i1 %.not14.i, label %34, label %lean_dec.exit.i

34:                                               ; preds = %31
  %35 = load i32, ptr %29, align 4, !tbaa !5
  %36 = icmp sgt i32 %35, 1
  br i1 %36, label %37, label %39, !prof !10

37:                                               ; preds = %34
  %38 = add nsw i32 %35, -1
  store i32 %38, ptr %29, align 4, !tbaa !5
  br label %lean_dec.exit.i

39:                                               ; preds = %34
  %.not.i.i = icmp eq i32 %35, 0
  br i1 %.not.i.i, label %lean_dec.exit.i, label %40

40:                                               ; preds = %39
  tail call void @lean_dec_ref_cold(ptr noundef nonnull %29) #4
  br label %lean_dec.exit.i

lean_dec.exit.i:                                  ; preds = %40, %39, %37, %31
  %41 = getelementptr inbounds nuw i8, ptr %13, i64 24
  %42 = load ptr, ptr %41, align 8, !tbaa !11
  %43 = ptrtoint ptr %42 to i64
  %44 = and i64 %43, 1
  %.not.i11.i = icmp eq i64 %44, 0
  br i1 %.not.i11.i, label %45, label %lean_array_get.exit

45:                                               ; preds = %lean_dec.exit.i
  %.val.i.i.i = load i32, ptr %42, align 4, !tbaa !5
  %46 = icmp sgt i32 %.val.i.i.i, 0
  br i1 %46, label %47, label %49, !prof !10

47:                                               ; preds = %45
  %48 = add nuw i32 %.val.i.i.i, 1
  store i32 %48, ptr %42, align 4, !tbaa !5
  br label %lean_array_get.exit

49:                                               ; preds = %45
  %.not.i.i.i = icmp eq i32 %.val.i.i.i, 0
  br i1 %.not.i.i.i, label %lean_array_get.exit, label %50

50:                                               ; preds = %49
  tail call void @lean_inc_ref_cold(ptr noundef nonnull %42) #4
  br label %lean_array_get.exit

lean_array_uget.exit.i:                           ; preds = %lean_dec.exit23
  %51 = tail call ptr @lean_array_get_panic(ptr noundef %29) #4
  br label %lean_array_get.exit

lean_array_get.exit:                              ; preds = %lean_dec.exit.i, %47, %49, %50, %lean_array_uget.exit.i
  %.1.i = phi ptr [ %51, %lean_array_uget.exit.i ], [ %42, %50 ], [ %42, %49 ], [ %42, %47 ], [ %42, %lean_dec.exit.i ]
  br i1 %.not44, label %52, label %lean_dec.exit22

52:                                               ; preds = %lean_array_get.exit
  %53 = load i32, ptr %13, align 4, !tbaa !5
  %54 = icmp sgt i32 %53, 1
  br i1 %54, label %55, label %57, !prof !10

55:                                               ; preds = %52
  %56 = add nsw i32 %53, -1
  store i32 %56, ptr %13, align 4, !tbaa !5
  br label %lean_dec.exit22

57:                                               ; preds = %52
  %.not.i27 = icmp eq i32 %53, 0
  br i1 %.not.i27, label %lean_dec.exit22, label %58

58:                                               ; preds = %57
  tail call void @lean_dec_ref_cold(ptr noundef nonnull %13) #4
  br label %lean_dec.exit22

lean_dec.exit22:                                  ; preds = %58, %57, %55, %lean_array_get.exit
  %59 = getelementptr inbounds nuw i8, ptr %0, i64 16
  %60 = load ptr, ptr %59, align 8, !tbaa !11
  %61 = ptrtoint ptr %60 to i64
  %62 = and i64 %61, 1
  %.not46 = icmp eq i64 %62, 0
  br i1 %.not46, label %63, label %lean_inc.exit24

63:                                               ; preds = %lean_dec.exit22
  %.val.i38 = load i32, ptr %60, align 4, !tbaa !5
  %64 = icmp sgt i32 %.val.i38, 0
  br i1 %64, label %65, label %67, !prof !10

65:                                               ; preds = %63
  %66 = add nuw i32 %.val.i38, 1
  store i32 %66, ptr %60, align 4, !tbaa !5
  br label %lean_inc.exit24

67:                                               ; preds = %63
  %.not.i39 = icmp eq i32 %.val.i38, 0
  br i1 %.not.i39, label %lean_inc.exit24, label %68

68:                                               ; preds = %67
  tail call void @lean_inc_ref_cold(ptr noundef nonnull %60) #4
  br label %lean_inc.exit24

lean_inc.exit24:                                  ; preds = %68, %67, %65, %lean_dec.exit22
  %69 = tail call ptr @l_Lean_Expr_const___override(ptr noundef %.1.i, ptr noundef %60) #4
  %70 = getelementptr inbounds nuw i8, ptr %0, i64 24
  %71 = load ptr, ptr %70, align 8, !tbaa !11
  %72 = ptrtoint ptr %71 to i64
  %73 = and i64 %72, 1
  %.not47 = icmp eq i64 %73, 0
  br i1 %.not47, label %74, label %lean_inc.exit

74:                                               ; preds = %lean_inc.exit24
  %.val.i41 = load i32, ptr %71, align 4, !tbaa !5
  %75 = icmp sgt i32 %.val.i41, 0
  br i1 %75, label %76, label %78, !prof !10

76:                                               ; preds = %74
  %77 = add nuw i32 %.val.i41, 1
  store i32 %77, ptr %71, align 4, !tbaa !5
  br label %lean_inc.exit

78:                                               ; preds = %74
  %.not.i42 = icmp eq i32 %.val.i41, 0
  br i1 %.not.i42, label %lean_inc.exit, label %79

79:                                               ; preds = %78
  tail call void @lean_inc_ref_cold(ptr noundef nonnull %71) #4
  br label %lean_inc.exit

lean_inc.exit:                                    ; preds = %79, %78, %76, %lean_inc.exit24
  %80 = ptrtoint ptr %0 to i64
  %81 = and i64 %80, 1
  %.not48 = icmp eq i64 %81, 0
  br i1 %.not48, label %82, label %lean_dec.exit21

82:                                               ; preds = %lean_inc.exit
  %83 = load i32, ptr %0, align 4, !tbaa !5
  %84 = icmp sgt i32 %83, 1
  br i1 %84, label %85, label %87, !prof !10

85:                                               ; preds = %82
  %86 = add nsw i32 %83, -1
  store i32 %86, ptr %0, align 4, !tbaa !5
  br label %lean_dec.exit21

87:                                               ; preds = %82
  %.not.i29 = icmp eq i32 %83, 0
  br i1 %.not.i29, label %lean_dec.exit21, label %88

88:                                               ; preds = %87
  tail call void @lean_dec_ref_cold(ptr noundef nonnull %0) #4
  br label %lean_dec.exit21

lean_dec.exit21:                                  ; preds = %88, %87, %85, %lean_inc.exit
  %89 = tail call ptr @l_Lean_mkAppN(ptr noundef %69, ptr noundef %71) #4
  br i1 %.not47, label %90, label %lean_dec.exit

90:                                               ; preds = %lean_dec.exit21
  %91 = load i32, ptr %71, align 4, !tbaa !5
  %92 = icmp sgt i32 %91, 1
  br i1 %92, label %93, label %95, !prof !10

93:                                               ; preds = %90
  %94 = add nsw i32 %91, -1
  store i32 %94, ptr %71, align 4, !tbaa !5
  br label %lean_dec.exit

95:                                               ; preds = %90
  %.not.i31 = icmp eq i32 %91, 0
  br i1 %.not.i31, label %lean_dec.exit, label %96

96:                                               ; preds = %95
  tail call void @lean_dec_ref_cold(ptr noundef nonnull %71) #4
  br label %lean_dec.exit

lean_dec.exit:                                    ; preds = %96, %95, %93, %lean_dec.exit21
  %97 = tail call ptr @l_Lean_MessageData_ofExpr(ptr noundef %89) #4
  ret ptr %97
}